target datalayout = "e-m:e-p270:32:32-p271:32:32-p272:64:64-i64:64-i128:128-f80:128-n8:16:32:64-S128"
target triple = "x86_64-pc-linux-gnu"

%struct.ExprState = type { i32, i8, i8, i64, ptr, ptr, ptr, ptr, ptr, i32, i32, ptr, ptr, ptr, ptr, ptr, ptr, ptr }
%struct.ExprEvalStep = type { i64, ptr, ptr, %union.anon }
%union.anon = type { %struct.anon.23 }
%struct.anon.23 = type { ptr, ptr, i32, i32, ptr, ptr }
%struct.FunctionCallInfoBaseData = type { ptr, ptr, ptr, i32, i8, i16, [0 x %struct.NullableDatum] }
%struct.NullableDatum = type { i64, i8 }
%struct.anon.13 = type { ptr, ptr }
%struct.anon.6 = type { ptr, ptr, ptr, i32, i8 }

; Function Attrs: nounwind uwtable
define internal i64 @ExecJustApplyFuncToCase(ptr noundef %0, ptr noundef %1, ptr noundef %2) #0 {
  %4 = alloca i64, align 8
  %5 = alloca ptr, align 8
  %6 = alloca ptr, align 8
  %7 = alloca ptr, align 8
  %8 = alloca ptr, align 8
  %9 = alloca ptr, align 8
  %10 = alloca ptr, align 8
  %11 = alloca i32, align 4
  %12 = alloca i64, align 8
  %13 = alloca i32, align 4
  %14 = alloca i32, align 4
  store ptr %0, ptr %5, align 8
  store ptr %1, ptr %6, align 8
  store ptr %2, ptr %7, align 8
  call void @llvm.lifetime.start.p0(i64 8, ptr %8) #11
  %15 = load ptr, ptr %5, align 8
  %16 = getelementptr inbounds nuw %struct.ExprState, ptr %15, i32 0, i32 5
  %17 = load ptr, ptr %16, align 8
  %18 = getelementptr inbounds %struct.ExprEvalStep, ptr %17, i64 0
  store ptr %18, ptr %8, align 8
  call void @llvm.lifetime.start.p0(i64 8, ptr %9) #11
  call void @llvm.lifetime.start.p0(i64 8, ptr %10) #11
  call void @llvm.lifetime.start.p0(i64 4, ptr %11) #11
  call void @llvm.lifetime.start.p0(i64 8, ptr %12) #11
  %19 = load ptr, ptr %8, align 8
  %20 = getelementptr inbounds nuw %struct.ExprEvalStep, ptr %19, i32 0, i32 3
  %21 = getelementptr inbounds nuw %struct.anon.13, ptr %20, i32 0, i32 0
  %22 = load ptr, ptr %21, align 8
  %23 = load i64, ptr %22, align 8
  %24 = load ptr, ptr %8, align 8
  %25 = getelementptr inbounds nuw %struct.ExprEvalStep, ptr %24, i32 0, i32 1
  %26 = load ptr, ptr %25, align 8
  store i64 %23, ptr %26, align 8
  %27 = load ptr, ptr %8, align 8
  %28 = getelementptr inbounds nuw %struct.ExprEvalStep, ptr %27, i32 0, i32 3
  %29 = getelementptr inbounds nuw %struct.anon.13, ptr %28, i32 0, i32 1
  %30 = load ptr, ptr %29, align 8
  %31 = load i8, ptr %30, align 1, !range !7, !noundef !8
  %32 = trunc i8 %31 to i1
  %33 = load ptr, ptr %8, align 8
  %34 = getelementptr inbounds nuw %struct.ExprEvalStep, ptr %33, i32 0, i32 2
  %35 = load ptr, ptr %34, align 8
  %36 = zext i1 %32 to i8
  store i8 %36, ptr %35, align 1
  %37 = load ptr, ptr %8, align 8
  %38 = getelementptr inbounds nuw %struct.ExprEvalStep, ptr %37, i32 1
  store ptr %38, ptr %8, align 8
  %39 = load ptr, ptr %8, align 8
  %40 = getelementptr inbounds nuw %struct.ExprEvalStep, ptr %39, i32 0, i32 3
  %41 = getelementptr inbounds nuw %struct.anon.6, ptr %40, i32 0, i32 3
  %42 = load i32, ptr %41, align 8
  store i32 %42, ptr %11, align 4
  %43 = load ptr, ptr %8, align 8
  %44 = getelementptr inbounds nuw %struct.ExprEvalStep, ptr %43, i32 0, i32 3
  %45 = getelementptr inbounds nuw %struct.anon.6, ptr %44, i32 0, i32 1
  %46 = load ptr, ptr %45, align 8
  store ptr %46, ptr %9, align 8
  %47 = load ptr, ptr %9, align 8
  %48 = getelementptr inbounds nuw %struct.FunctionCallInfoBaseData, ptr %47, i32 0, i32 6
  %49 = getelementptr inbounds [0 x %struct.NullableDatum], ptr %48, i64 0, i64 0
  store ptr %49, ptr %10, align 8
  call void @llvm.lifetime.start.p0(i64 4, ptr %13) #11
  store i32 0, ptr %13, align 4
  br label %50

50:                                               ; preds = %66, %3
  %51 = load i32, ptr %13, align 4
  %52 = load i32, ptr %11, align 4
  %53 = icmp slt i32 %51, %52
  br i1 %53, label %55, label %54

54:                                               ; preds = %50
  store i32 2, ptr %14, align 4
  br label %69

55:                                               ; preds = %50
  %56 = load ptr, ptr %10, align 8
  %57 = load i32, ptr %13, align 4
  %58 = sext i32 %57 to i64
  %59 = getelementptr inbounds %struct.NullableDatum, ptr %56, i64 %58
  %60 = getelementptr inbounds nuw %struct.NullableDatum, ptr %59, i32 0, i32 1
  %61 = load i8, ptr %60, align 8, !range !7, !noundef !8
  %62 = trunc i8 %61 to i1
  br i1 %62, label %63, label %65

63:                                               ; preds = %55
  %64 = load ptr, ptr %7, align 8
  store i8 1, ptr %64, align 1
  store i64 0, ptr %4, align 8
  store i32 1, ptr %14, align 4
  br label %69

65:                                               ; preds = %55
  br label %66

66:                                               ; preds = %65
  %67 = load i32, ptr %13, align 4
  %68 = add i32 %67, 1
  store i32 %68, ptr %13, align 4
  br label %50, !llvm.loop !9

69:                                               ; preds = %63, %54
  call void @llvm.lifetime.end.p0(i64 4, ptr %13) #11
  %70 = load i32, ptr %14, align 4
  switch i32 %70, label %87 [
    i32 2, label %71
  ]

71:                                               ; preds = %69
  %72 = load ptr, ptr %9, align 8
  %73 = getelementptr inbounds nuw %struct.FunctionCallInfoBaseData, ptr %72, i32 0, i32 4
  store i8 0, ptr %73, align 4
  %74 = load ptr, ptr %8, align 8
  %75 = getelementptr inbounds nuw %struct.ExprEvalStep, ptr %74, i32 0, i32 3
  %76 = getelementptr inbounds nuw %struct.anon.6, ptr %75, i32 0, i32 2
  %77 = load ptr, ptr %76, align 8
  %78 = load ptr, ptr %9, align 8
  %79 = call i64 %77(ptr noundef %78)
  store i64 %79, ptr %12, align 8
  %80 = load ptr, ptr %9, align 8
  %81 = getelementptr inbounds nuw %struct.FunctionCallInfoBaseData, ptr %80, i32 0, i32 4
  %82 = load i8, ptr %81, align 4, !range !7, !noundef !8
  %83 = trunc i8 %82 to i1
  %84 = load ptr, ptr %7, align 8
  %85 = zext i1 %83 to i8
  store i8 %85, ptr %84, align 1
  %86 = load i64, ptr %12, align 8
  store i64 %86, ptr %4, align 8
  store i32 1, ptr %14, align 4
  br label %87

87:                                               ; preds = %71, %69
  call void @llvm.lifetime.end.p0(i64 8, ptr %12) #11
  call void @llvm.lifetime.end.p0(i64 4, ptr %11) #11
  call void @llvm.lifetime.end.p0(i64 8, ptr %10) #11
  call void @llvm.lifetime.end.p0(i64 8, ptr %9) #11
  call void @llvm.lifetime.end.p0(i64 8, ptr %8) #11
  %88 = load i64, ptr %4, align 8
  ret i64 %88
}