; Function Attrs: nounwind uwtable
define internal i64 @ExecJustApplyFuncToCase(ptr noundef readonly captures(none) %0, ptr readnone captures(none) %1, ptr noundef writeonly captures(none) %2) #0 {
  %4 = getelementptr inbounds nuw i8, ptr %0, i64 24
  %5 = load ptr, ptr %4, align 8
  %6 = getelementptr inbounds nuw i8, ptr %5, i64 24
  %7 = load ptr, ptr %6, align 8
  %8 = load i64, ptr %7, align 8
  %9 = getelementptr inbounds nuw i8, ptr %5, i64 8
  %10 = load ptr, ptr %9, align 8
  store i64 %8, ptr %10, align 8
  %11 = getelementptr inbounds nuw i8, ptr %5, i64 32
  %12 = load ptr, ptr %11, align 8
  %13 = load i8, ptr %12, align 1, !range !8, !noundef !9
  %14 = getelementptr inbounds nuw i8, ptr %5, i64 16
  %15 = load ptr, ptr %14, align 8
  store i8 %13, ptr %15, align 1
  %16 = getelementptr inbounds nuw i8, ptr %5, i64 112
  %17 = load i32, ptr %16, align 8
  %18 = getelementptr inbounds nuw i8, ptr %5, i64 96
  %19 = load ptr, ptr %18, align 8
  %.not24 = icmp sgt i32 %17, 0
  br i1 %.not24, label %.lr.ph, label %.critedge

.lr.ph:                                           ; preds = %3
  %20 = getelementptr i8, ptr %19, i64 40
  %wide.trip.count = zext nneg i32 %17 to i64
  br label %22

21:                                               ; preds = %22
  %indvars.iv.next = add nuw nsw i64 %indvars.iv, 1
  %exitcond.not = icmp eq i64 %indvars.iv.next, %wide.trip.count
  br i1 %exitcond.not, label %.critedge, label %22, !llvm.loop !10

22:                                               ; preds = %.lr.ph, %21
  %indvars.iv = phi i64 [ 0, %.lr.ph ], [ %indvars.iv.next, %21 ]
  %.idx = shl nuw nsw i64 %indvars.iv, 4
  %23 = getelementptr i8, ptr %20, i64 %.idx
  %24 = load i8, ptr %23, align 8, !range !8, !noundef !9
  %25 = trunc nuw i8 %24 to i1
  br i1 %25, label %.loopexit, label %21

.critedge:                                        ; preds = %21, %3
  %26 = getelementptr inbounds nuw i8, ptr %19, i64 28
  store i8 0, ptr %26, align 4
  %27 = getelementptr inbounds nuw i8, ptr %5, i64 104
  %28 = load ptr, ptr %27, align 8
  %29 = tail call i64 %28(ptr noundef %19) #18
  %30 = load i8, ptr %26, align 4, !range !8, !noundef !9
  br label %.loopexit

.loopexit:                                        ; preds = %22, %.critedge
  %storemerge = phi i8 [ %30, %.critedge ], [ 1, %22 ]
  %.1 = phi i64 [ %29, %.critedge ], [ 0, %22 ]
  store i8 %storemerge, ptr %2, align 1
  ret i64 %.1
}